target datalayout = "e-m:e-p270:32:32-p271:32:32-p272:64:64-i64:64-i128:128-f80:128-n8:16:32:64-S128"
target triple = "x86_64-pc-linux-gnu"

%struct.UScriptRun = type { i32, ptr, i32, i32, i32, [32 x %struct.ParenStackEntry], i32, i32, i32 }
%struct.ParenStackEntry = type { i32, i32 }

; Function Attrs: mustprogress nounwind uwtable
define void @uscript_resetRun_77(ptr noundef %0) #5 {
  %2 = alloca ptr, align 8
  store ptr %0, ptr %2, align 8, !tbaa !11
  %3 = load ptr, ptr %2, align 8, !tbaa !11
  %4 = icmp ne ptr %3, null
  br i1 %4, label %5, label %18

5:                                                ; preds = %1
  %6 = load ptr, ptr %2, align 8, !tbaa !11
  %7 = getelementptr inbounds nuw %struct.UScriptRun, ptr %6, i32 0, i32 2
  store i32 0, ptr %7, align 8, !tbaa !19
  %8 = load ptr, ptr %2, align 8, !tbaa !11
  %9 = getelementptr inbounds nuw %struct.UScriptRun, ptr %8, i32 0, i32 3
  store i32 0, ptr %9, align 4, !tbaa !20
  %10 = load ptr, ptr %2, align 8, !tbaa !11
  %11 = getelementptr inbounds nuw %struct.UScriptRun, ptr %10, i32 0, i32 4
  store i32 -1, ptr %11, align 8, !tbaa !21
  %12 = load ptr, ptr %2, align 8, !tbaa !11
  %13 = getelementptr inbounds nuw %struct.UScriptRun, ptr %12, i32 0, i32 6
  store i32 -1, ptr %13, align 4, !tbaa !22
  %14 = load ptr, ptr %2, align 8, !tbaa !11
  %15 = getelementptr inbounds nuw %struct.UScriptRun, ptr %14, i32 0, i32 7
  store i32 0, ptr %15, align 8, !tbaa !23
  %16 = load ptr, ptr %2, align 8, !tbaa !11
  %17 = getelementptr inbounds nuw %struct.UScriptRun, ptr %16, i32 0, i32 8
  store i32 0, ptr %17, align 4, !tbaa !24
  br label %18

18:                                               ; preds = %5, %1
  ret void
}