; Function Attrs: mustprogress nofree norecurse nosync nounwind willreturn memory(argmem: write) uwtable
define void @uscript_resetRun_77(ptr noundef writeonly %0) local_unnamed_addr #5 {
  %.not = icmp eq ptr %0, null
  br i1 %.not, label %9, label %2

2:                                                ; preds = %1
  %3 = getelementptr inbounds nuw i8, ptr %0, i64 16
  store i32 0, ptr %3, align 8, !tbaa !14
  %4 = getelementptr inbounds nuw i8, ptr %0, i64 20
  store i32 0, ptr %4, align 4, !tbaa !15
  %5 = getelementptr inbounds nuw i8, ptr %0, i64 24
  store i32 -1, ptr %5, align 8, !tbaa !16
  %6 = getelementptr inbounds nuw i8, ptr %0, i64 284
  store i32 -1, ptr %6, align 4, !tbaa !17
  %7 = getelementptr inbounds nuw i8, ptr %0, i64 288
  store i32 0, ptr %7, align 8, !tbaa !18
  %8 = getelementptr inbounds nuw i8, ptr %0, i64 292
  store i32 0, ptr %8, align 4, !tbaa !19
  br label %9

9:                                                ; preds = %2, %1
  ret void
}